target datalayout = "e-m:e-p270:32:32-p271:32:32-p272:64:64-i64:64-i128:128-f80:128-n8:16:32:64-S128"
target triple = "x86_64-unknown-linux-gnu"

; Function Attrs: mustprogress nounwind uwtable
define noundef double @_ZN8QuantLib28exponential_integrals_helper1gEd(double noundef %x) #0 {
entry:
  %x.addr = alloca double, align 8
  %x2 = alloca double, align 8
  store double %x, ptr %x.addr, align 8, !tbaa !3
  call void @llvm.lifetime.start.p0(i64 8, ptr %x2) #13
  %0 = load double, ptr %x.addr, align 8, !tbaa !3
  %1 = load double, ptr %x.addr, align 8, !tbaa !3
  %mul = fmul double %0, %1
  %div = fdiv double 1.000000e+00, %mul
  store double %div, ptr %x2, align 8, !tbaa !3
  %2 = load double, ptr %x2, align 8, !tbaa !3
  %3 = load double, ptr %x2, align 8, !tbaa !3
  %4 = load double, ptr %x2, align 8, !tbaa !3
  %5 = load double, ptr %x2, align 8, !tbaa !3
  %6 = load double, ptr %x2, align 8, !tbaa !3
  %7 = load double, ptr %x2, align 8, !tbaa !3
  %8 = load double, ptr %x2, align 8, !tbaa !3
  %9 = load double, ptr %x2, align 8, !tbaa !3
  %10 = load double, ptr %x2, align 8, !tbaa !3
  %11 = load double, ptr %x2, align 8, !tbaa !3
  %12 = load double, ptr %x2, align 8, !tbaa !3
  %neg = fneg double %12
  %13 = call double @llvm.fmuladd.f64(double %neg, double 0x4273DDA8E1244B78, double 0x4297671EB93999FB)
  %14 = call double @llvm.fmuladd.f64(double %11, double %13, double 0x42B07656D15BE275)
  %15 = call double @llvm.fmuladd.f64(double %10, double %14, double 0x429B904D223E0960)
  %16 = call double @llvm.fmuladd.f64(double %9, double %15, double 0x426FBCD2B0A2F417)
  %17 = call double @llvm.fmuladd.f64(double %8, double %16, double 0x422FCE9DE77CB99A)
  %18 = call double @llvm.fmuladd.f64(double %7, double %17, double 0x41DEBDA0F3DDEDB5)
  %19 = call double @llvm.fmuladd.f64(double %6, double %18, double 0x417DCECCD145F373)
  %20 = call double @llvm.fmuladd.f64(double %5, double %19, double 0x410CB73973F89540)
  %21 = call double @llvm.fmuladd.f64(double %4, double %20, double 0x40896CC2F8D24845)
  %22 = call double @llvm.fmuladd.f64(double %3, double %21, double 1.000000e+00)
  %mul11 = fmul double %2, %22
  %23 = load double, ptr %x2, align 8, !tbaa !3
  %24 = load double, ptr %x2, align 8, !tbaa !3
  %25 = load double, ptr %x2, align 8, !tbaa !3
  %26 = load double, ptr %x2, align 8, !tbaa !3
  %27 = load double, ptr %x2, align 8, !tbaa !3
  %28 = load double, ptr %x2, align 8, !tbaa !3
  %29 = load double, ptr %x2, align 8, !tbaa !3
  %30 = load double, ptr %x2, align 8, !tbaa !3
  %31 = load double, ptr %x2, align 8, !tbaa !3
  %32 = call double @llvm.fmuladd.f64(double %31, double 0x42C22C938603268A, double 0x42C24605CD83C6D5)
  %33 = call double @llvm.fmuladd.f64(double %30, double %32, double 0x42A54FE857E62B52)
  %34 = call double @llvm.fmuladd.f64(double %29, double %33, double 0x42745A70E5A94255)
  %35 = call double @llvm.fmuladd.f64(double %28, double %34, double 0x423255A842662ED9)
  %36 = call double @llvm.fmuladd.f64(double %27, double %35, double 0x41E0A42B3D18FDE6)
  %37 = call double @llvm.fmuladd.f64(double %26, double %36, double 0x417F17A2A2A2A5FE)
  %38 = call double @llvm.fmuladd.f64(double %25, double %37, double 0x410D4D2605CEA8F1)
  %39 = call double @llvm.fmuladd.f64(double %24, double %38, double 0x40899CC2F8D24035)
  %40 = call double @llvm.fmuladd.f64(double %23, double %39, double 1.000000e+00)
  %div21 = fdiv double %mul11, %40
  call void @llvm.lifetime.end.p0(i64 8, ptr %x2) #13
  ret double %div21
}

; Function Attrs: mustprogress nounwind uwtable
define noundef double @_ZN8QuantLib28exponential_integrals_helper1fEd(double noundef %x) #0 {
entry:
  %x.addr = alloca double, align 8
  %x2 = alloca double, align 8
  store double %x, ptr %x.addr, align 8, !tbaa !3
  call void @llvm.lifetime.start.p0(i64 8, ptr %x2) #13
  %0 = load double, ptr %x.addr, align 8, !tbaa !3
  %1 = load double, ptr %x.addr, align 8, !tbaa !3
  %mul = fmul double %0, %1
  %div = fdiv double 1.000000e+00, %mul
  store double %div, ptr %x2, align 8, !tbaa !3
  %2 = load double, ptr %x2, align 8, !tbaa !3
  %3 = load double, ptr %x2, align 8, !tbaa !3
  %4 = load double, ptr %x2, align 8, !tbaa !3
  %5 = load double, ptr %x2, align 8, !tbaa !3
  %6 = load double, ptr %x2, align 8, !tbaa !3
  %7 = load double, ptr %x2, align 8, !tbaa !3
  %8 = load double, ptr %x2, align 8, !tbaa !3
  %9 = load double, ptr %x2, align 8, !tbaa !3
  %10 = load double, ptr %x2, align 8, !tbaa !3
  %11 = load double, ptr %x2, align 8, !tbaa !3
  %neg = fneg double %11
  %12 = call double @llvm.fmuladd.f64(double %neg, double 0x425CCB9F32015A9F, double 0x42920056EACB3E14)
  %13 = call double @llvm.fmuladd.f64(double %10, double %12, double 0x42A255A4371F69B7)
  %14 = call double @llvm.fmuladd.f64(double %9, double %13, double 0x428EA124B58C7628)
  %15 = call double @llvm.fmuladd.f64(double %8, double %14, double 0x4262A4595375C0B4)
  %16 = call double @llvm.fmuladd.f64(double %7, double %15, double 0x42243289F49E1625)
  %17 = call double @llvm.fmuladd.f64(double %6, double %16, double 0x41D551D1358D9DA3)
  %18 = call double @llvm.fmuladd.f64(double %5, double %17, double 0x4176AC737033607B)
  %19 = call double @llvm.fmuladd.f64(double %4, double %18, double 0x4107F962FBB07365)
  %20 = call double @llvm.fmuladd.f64(double %3, double %19, double 0x4087437F1D97AD21)
  %21 = call double @llvm.fmuladd.f64(double %2, double %20, double 1.000000e+00)
  %22 = load double, ptr %x.addr, align 8, !tbaa !3
  %23 = load double, ptr %x2, align 8, !tbaa !3
  %24 = load double, ptr %x2, align 8, !tbaa !3
  %25 = load double, ptr %x2, align 8, !tbaa !3
  %26 = load double, ptr %x2, align 8, !tbaa !3
  %27 = load double, ptr %x2, align 8, !tbaa !3
  %28 = load double, ptr %x2, align 8, !tbaa !3
  %29 = load double, ptr %x2, align 8, !tbaa !3
  %30 = load double, ptr %x2, align 8, !tbaa !3
  %31 = load double, ptr %x2, align 8, !tbaa !3
  %32 = call double @llvm.fmuladd.f64(double %31, double 0x42A449C6B1B09EDA, double 0x42AA18C661C84C34)
  %33 = call double @llvm.fmuladd.f64(double %30, double %32, double 0x4292694763B8BB01)
  %34 = call double @llvm.fmuladd.f64(double %29, double %33, double 0x42649EBF005EB07E)
  %35 = call double @llvm.fmuladd.f64(double %28, double %34, double 0x42255AE13A418D9C)
  %36 = call double @llvm.fmuladd.f64(double %27, double %35, double 0x41D5F9E0247B82BD)
  %37 = call double @llvm.fmuladd.f64(double %26, double %36, double 0x417708DDF043A2CE)
  %38 = call double @llvm.fmuladd.f64(double %25, double %37, double 0x41082749F9EBB1F1)
  %39 = call double @llvm.fmuladd.f64(double %24, double %38, double 0x4087537F1D97ACD1)
  %40 = call double @llvm.fmuladd.f64(double %23, double %39, double 1.000000e+00)
  %mul20 = fmul double %22, %40
  %div21 = fdiv double %21, %mul20
  call void @llvm.lifetime.end.p0(i64 8, ptr %x2) #13
  ret double %div21
}

; Function Attrs: mustprogress uwtable
define noundef double @_ZN8QuantLib19ExponentialIntegral2SiEd(double noundef %x) #3 {
entry:
  %retval = alloca double, align 8
  %x.addr = alloca double, align 8
  %x2 = alloca double, align 8
  store double %x, ptr %x.addr, align 8, !tbaa !3
  %0 = load double, ptr %x.addr, align 8, !tbaa !3
  %cmp = fcmp olt double %0, 0.000000e+00
  br i1 %cmp, label %if.then, label %if.else

if.then:                                          ; preds = %entry
  %1 = load double, ptr %x.addr, align 8, !tbaa !3
  %fneg = fneg double %1
  %call = call noundef double @_ZN8QuantLib19ExponentialIntegral2SiEd(double noundef %fneg)
  %fneg1 = fneg double %call
  store double %fneg1, ptr %retval, align 8
  br label %return

if.else:                                          ; preds = %entry
  %2 = load double, ptr %x.addr, align 8, !tbaa !3
  %cmp2 = fcmp ole double %2, 4.000000e+00
  br i1 %cmp2, label %if.then3, label %if.else18

if.then3:                                         ; preds = %if.else
  call void @llvm.lifetime.start.p0(i64 8, ptr %x2) #13
  %3 = load double, ptr %x.addr, align 8, !tbaa !3
  %4 = load double, ptr %x.addr, align 8, !tbaa !3
  %mul = fmul double %3, %4
  store double %mul, ptr %x2, align 8, !tbaa !3
  %5 = load double, ptr %x.addr, align 8, !tbaa !3
  %6 = load double, ptr %x2, align 8, !tbaa !3
  %7 = load double, ptr %x2, align 8, !tbaa !3
  %8 = load double, ptr %x2, align 8, !tbaa !3
  %9 = load double, ptr %x2, align 8, !tbaa !3
  %10 = load double, ptr %x2, align 8, !tbaa !3
  %11 = load double, ptr %x2, align 8, !tbaa !3
  %12 = load double, ptr %x2, align 8, !tbaa !3
  %neg = fneg double %12
  %13 = call double @llvm.fmuladd.f64(double %neg, double 0x3CC5CF42710CA3FA, double 0x3D68EB42E75AA806)
  %14 = call double @llvm.fmuladd.f64(double %11, double %13, double 0xBDF845984D0E374D)
  %15 = call double @llvm.fmuladd.f64(double %10, double %14, double 0x3E79522D26307C0C)
  %16 = call double @llvm.fmuladd.f64(double %9, double %15, double 0xBEED92E003182CD3)
  %17 = call double @llvm.fmuladd.f64(double %8, double %16, double 0x3F52EAA0858F5C66)
  %18 = call double @llvm.fmuladd.f64(double %7, double %17, double 0xBFA743D346EF9169)
  %19 = call double @llvm.fmuladd.f64(double %6, double %18, double 1.000000e+00)
  %mul11 = fmul double %5, %19
  %20 = load double, ptr %x2, align 8, !tbaa !3
  %21 = load double, ptr %x2, align 8, !tbaa !3
  %22 = load double, ptr %x2, align 8, !tbaa !3
  %23 = load double, ptr %x2, align 8, !tbaa !3
  %24 = load double, ptr %x2, align 8, !tbaa !3
  %25 = load double, ptr %x2, align 8, !tbaa !3
  %26 = call double @llvm.fmuladd.f64(double %25, double 0x3CB723612D0C63A0, double 0x3D5FB352EF2F0F1F)
  %27 = call double @llvm.fmuladd.f64(double %24, double %26, double 0x3DF68B6CFDA26513)
  %28 = call double @llvm.fmuladd.f64(double %23, double %27, double 0x3E84E443BD2B518E)
  %29 = call double @llvm.fmuladd.f64(double %22, double %28, double 0x3F0A2BD0A39EBC96)
  %30 = call double @llvm.fmuladd.f64(double %21, double %29, double 0x3F84B7CF5608D6CE)
  %31 = call double @llvm.fmuladd.f64(double %20, double %30, double 1.000000e+00)
  %div = fdiv double %mul11, %31
  store double %div, ptr %retval, align 8
  call void @llvm.lifetime.end.p0(i64 8, ptr %x2) #13
  br label %return

if.else18:                                        ; preds = %if.else
  %32 = load double, ptr %x.addr, align 8, !tbaa !3
  %call19 = call noundef double @_ZN8QuantLib28exponential_integrals_helper1fEd(double noundef %32)
  %33 = load double, ptr %x.addr, align 8, !tbaa !3
  %call20 = call double @cos(double noundef %33) #13, !tbaa !7
  %neg22 = fneg double %call19
  %34 = call double @llvm.fmuladd.f64(double %neg22, double %call20, double 0x3FF921FB54442D18)
  %35 = load double, ptr %x.addr, align 8, !tbaa !3
  %call23 = call noundef double @_ZN8QuantLib28exponential_integrals_helper1gEd(double noundef %35)
  %36 = load double, ptr %x.addr, align 8, !tbaa !3
  %call24 = call double @sin(double noundef %36) #13, !tbaa !7
  %neg26 = fneg double %call23
  %37 = call double @llvm.fmuladd.f64(double %neg26, double %call24, double %34)
  store double %37, ptr %retval, align 8
  br label %return

return:                                           ; preds = %if.else18, %if.then3, %if.then
  %38 = load double, ptr %retval, align 8
  ret double %38
}